target datalayout = "e-m:e-p270:32:32-p271:32:32-p272:64:64-i64:64-i128:128-f80:128-n8:16:32:64-S128"
target triple = "x86_64-pc-linux-gnu"

%struct.gen_ctx_st = type { ptr, ptr, i32, i32, ptr, ptr, i32, ptr, ptr, ptr }

@.str.42 = private unnamed_addr constant [29 x i8] c"../openssl/test/radix/terp.c\00", align 1
@.str.43 = private unnamed_addr constant [2 x i8] c"p\00", align 1

; Function Attrs: nounwind uwtable
define internal ptr @openc_alloc_space(ptr noundef %0, i64 noundef %1) #0 {
  %3 = alloca ptr, align 8
  %4 = alloca ptr, align 8
  %5 = alloca i64, align 8
  %6 = alloca ptr, align 8
  %7 = alloca i64, align 8
  %8 = alloca i64, align 8
  %9 = alloca i64, align 8
  %10 = alloca i64, align 8
  %11 = alloca i32, align 4
  store ptr %0, ptr %4, align 8, !tbaa !34
  store i64 %1, ptr %5, align 8, !tbaa !19
  call void @llvm.lifetime.start.p0(i64 8, ptr %6) #9
  call void @llvm.lifetime.start.p0(i64 8, ptr %7) #9
  call void @llvm.lifetime.start.p0(i64 8, ptr %8) #9
  call void @llvm.lifetime.start.p0(i64 8, ptr %9) #9
  call void @llvm.lifetime.start.p0(i64 8, ptr %10) #9
  %12 = load ptr, ptr %4, align 8, !tbaa !34
  %13 = getelementptr inbounds nuw %struct.gen_ctx_st, ptr %12, i32 0, i32 9
  %14 = load ptr, ptr %13, align 8, !tbaa !72
  %15 = load ptr, ptr %4, align 8, !tbaa !34
  %16 = getelementptr inbounds nuw %struct.gen_ctx_st, ptr %15, i32 0, i32 8
  %17 = load ptr, ptr %16, align 8, !tbaa !73
  %18 = ptrtoint ptr %14 to i64
  %19 = ptrtoint ptr %17 to i64
  %20 = sub i64 %18, %19
  store i64 %20, ptr %7, align 8, !tbaa !19
  %21 = load i64, ptr %7, align 8, !tbaa !19
  %22 = load i64, ptr %5, align 8, !tbaa !19
  %23 = icmp ult i64 %21, %22
  br i1 %23, label %24, label %78

24:                                               ; preds = %2
  %25 = load ptr, ptr %4, align 8, !tbaa !34
  %26 = getelementptr inbounds nuw %struct.gen_ctx_st, ptr %25, i32 0, i32 8
  %27 = load ptr, ptr %26, align 8, !tbaa !73
  %28 = load ptr, ptr %4, align 8, !tbaa !34
  %29 = getelementptr inbounds nuw %struct.gen_ctx_st, ptr %28, i32 0, i32 7
  %30 = load ptr, ptr %29, align 8, !tbaa !74
  %31 = ptrtoint ptr %27 to i64
  %32 = ptrtoint ptr %30 to i64
  %33 = sub i64 %31, %32
  store i64 %33, ptr %10, align 8, !tbaa !19
  %34 = load ptr, ptr %4, align 8, !tbaa !34
  %35 = getelementptr inbounds nuw %struct.gen_ctx_st, ptr %34, i32 0, i32 9
  %36 = load ptr, ptr %35, align 8, !tbaa !72
  %37 = load ptr, ptr %4, align 8, !tbaa !34
  %38 = getelementptr inbounds nuw %struct.gen_ctx_st, ptr %37, i32 0, i32 7
  %39 = load ptr, ptr %38, align 8, !tbaa !74
  %40 = ptrtoint ptr %36 to i64
  %41 = ptrtoint ptr %39 to i64
  %42 = sub i64 %40, %41
  store i64 %42, ptr %8, align 8, !tbaa !19
  %43 = load i64, ptr %8, align 8, !tbaa !19
  %44 = icmp eq i64 %43, 0
  br i1 %44, label %45, label %46

45:                                               ; preds = %24
  br label %49

46:                                               ; preds = %24
  %47 = load i64, ptr %8, align 8, !tbaa !19
  %48 = mul i64 %47, 2
  br label %49

49:                                               ; preds = %46, %45
  %50 = phi i64 [ 1024, %45 ], [ %48, %46 ]
  store i64 %50, ptr %9, align 8, !tbaa !19
  %51 = load ptr, ptr %4, align 8, !tbaa !34
  %52 = getelementptr inbounds nuw %struct.gen_ctx_st, ptr %51, i32 0, i32 7
  %53 = load ptr, ptr %52, align 8, !tbaa !74
  %54 = load i64, ptr %9, align 8, !tbaa !19
  %55 = call ptr @CRYPTO_realloc(ptr noundef %53, i64 noundef %54, ptr noundef @.str.42, i32 noundef 262)
  store ptr %55, ptr %6, align 8, !tbaa !41
  %56 = load ptr, ptr %6, align 8, !tbaa !41
  %57 = call i32 @test_ptr(ptr noundef @.str.42, i32 noundef 263, ptr noundef @.str.43, ptr noundef %56)
  %58 = icmp ne i32 %57, 0
  br i1 %58, label %60, label %59

59:                                               ; preds = %49
  store ptr null, ptr %3, align 8
  store i32 1, ptr %11, align 4
  br label %88

60:                                               ; preds = %49
  %61 = load ptr, ptr %6, align 8, !tbaa !41
  %62 = load ptr, ptr %4, align 8, !tbaa !34
  %63 = getelementptr inbounds nuw %struct.gen_ctx_st, ptr %62, i32 0, i32 7
  store ptr %61, ptr %63, align 8, !tbaa !74
  %64 = load ptr, ptr %4, align 8, !tbaa !34
  %65 = getelementptr inbounds nuw %struct.gen_ctx_st, ptr %64, i32 0, i32 7
  %66 = load ptr, ptr %65, align 8, !tbaa !74
  %67 = load i64, ptr %10, align 8, !tbaa !19
  %68 = getelementptr inbounds nuw i8, ptr %66, i64 %67
  %69 = load ptr, ptr %4, align 8, !tbaa !34
  %70 = getelementptr inbounds nuw %struct.gen_ctx_st, ptr %69, i32 0, i32 8
  store ptr %68, ptr %70, align 8, !tbaa !73
  %71 = load ptr, ptr %4, align 8, !tbaa !34
  %72 = getelementptr inbounds nuw %struct.gen_ctx_st, ptr %71, i32 0, i32 7
  %73 = load ptr, ptr %72, align 8, !tbaa !74
  %74 = load i64, ptr %9, align 8, !tbaa !19
  %75 = getelementptr inbounds nuw i8, ptr %73, i64 %74
  %76 = load ptr, ptr %4, align 8, !tbaa !34
  %77 = getelementptr inbounds nuw %struct.gen_ctx_st, ptr %76, i32 0, i32 9
  store ptr %75, ptr %77, align 8, !tbaa !72
  br label %78

78:                                               ; preds = %60, %2
  %79 = load ptr, ptr %4, align 8, !tbaa !34
  %80 = getelementptr inbounds nuw %struct.gen_ctx_st, ptr %79, i32 0, i32 8
  %81 = load ptr, ptr %80, align 8, !tbaa !73
  store ptr %81, ptr %6, align 8, !tbaa !41
  %82 = load i64, ptr %5, align 8, !tbaa !19
  %83 = load ptr, ptr %4, align 8, !tbaa !34
  %84 = getelementptr inbounds nuw %struct.gen_ctx_st, ptr %83, i32 0, i32 8
  %85 = load ptr, ptr %84, align 8, !tbaa !73
  %86 = getelementptr inbounds nuw i8, ptr %85, i64 %82
  store ptr %86, ptr %84, align 8, !tbaa !73
  %87 = load ptr, ptr %6, align 8, !tbaa !41
  store ptr %87, ptr %3, align 8
  store i32 1, ptr %11, align 4
  br label %88

88:                                               ; preds = %78, %59
  call void @llvm.lifetime.end.p0(i64 8, ptr %10) #9
  call void @llvm.lifetime.end.p0(i64 8, ptr %9) #9
  call void @llvm.lifetime.end.p0(i64 8, ptr %8) #9
  call void @llvm.lifetime.end.p0(i64 8, ptr %7) #9
  call void @llvm.lifetime.end.p0(i64 8, ptr %6) #9
  %89 = load ptr, ptr %3, align 8
  ret ptr %89
}

; Function Attrs: nounwind uwtable
define internal void @openc_p(ptr noundef %0, ptr noundef %1) #0 {
  %3 = alloca ptr, align 8
  %4 = alloca ptr, align 8
  %5 = alloca ptr, align 8
  %6 = alloca i32, align 4
  store ptr %0, ptr %3, align 8, !tbaa !34
  store ptr %1, ptr %4, align 8, !tbaa !41
  call void @llvm.lifetime.start.p0(i64 8, ptr %5) #9
  %7 = load ptr, ptr %3, align 8, !tbaa !34
  %8 = call ptr @openc_alloc_space(ptr noundef %7, i64 noundef 8)
  store ptr %8, ptr %5, align 8, !tbaa !41
  %9 = load ptr, ptr %5, align 8, !tbaa !41
  %10 = icmp eq ptr %9, null
  br i1 %10, label %11, label %12

11:                                               ; preds = %2
  store i32 1, ptr %6, align 4
  br label %14

12:                                               ; preds = %2
  %13 = load ptr, ptr %5, align 8, !tbaa !41
  call void @llvm.memcpy.p0.p0.i64(ptr align 1 %13, ptr align 8 %4, i64 8, i1 false)
  store i32 0, ptr %6, align 4
  br label %14

14:                                               ; preds = %12, %11
  call void @llvm.lifetime.end.p0(i64 8, ptr %5) #9
  %15 = load i32, ptr %6, align 4
  switch i32 %15, label %17 [
    i32 0, label %16
    i32 1, label %16
  ]

16:                                               ; preds = %14, %14
  ret void

17:                                               ; preds = %14
  unreachable
}

; Function Attrs: nounwind uwtable
define internal void @openc_u64(ptr noundef %0, i64 noundef %1) #0 {
  %3 = alloca ptr, align 8
  %4 = alloca i64, align 8
  %5 = alloca ptr, align 8
  %6 = alloca i32, align 4
  store ptr %0, ptr %3, align 8, !tbaa !34
  store i64 %1, ptr %4, align 8, !tbaa !19
  call void @llvm.lifetime.start.p0(i64 8, ptr %5) #9
  %7 = load ptr, ptr %3, align 8, !tbaa !34
  %8 = call ptr @openc_alloc_space(ptr noundef %7, i64 noundef 8)
  store ptr %8, ptr %5, align 8, !tbaa !41
  %9 = load ptr, ptr %5, align 8, !tbaa !41
  %10 = icmp eq ptr %9, null
  br i1 %10, label %11, label %12

11:                                               ; preds = %2
  store i32 1, ptr %6, align 4
  br label %14

12:                                               ; preds = %2
  %13 = load ptr, ptr %5, align 8, !tbaa !41
  call void @llvm.memcpy.p0.p0.i64(ptr align 1 %13, ptr align 8 %4, i64 8, i1 false)
  store i32 0, ptr %6, align 4
  br label %14

14:                                               ; preds = %12, %11
  call void @llvm.lifetime.end.p0(i64 8, ptr %5) #9
  %15 = load i32, ptr %6, align 4
  switch i32 %15, label %17 [
    i32 0, label %16
    i32 1, label %16
  ]

16:                                               ; preds = %14, %14
  ret void

17:                                               ; preds = %14
  unreachable
}

; Function Attrs: nounwind uwtable
define internal void @opgen_PUSH_PZ(ptr noundef %0, ptr noundef %1) #0 {
  %3 = alloca ptr, align 8
  %4 = alloca ptr, align 8
  store ptr %0, ptr %3, align 8, !tbaa !34
  store ptr %1, ptr %4, align 8, !tbaa !41
  %5 = load ptr, ptr %3, align 8, !tbaa !34
  call void @openc_u64(ptr noundef %5, i64 noundef 3)
  %6 = load ptr, ptr %3, align 8, !tbaa !34
  %7 = load ptr, ptr %4, align 8, !tbaa !41
  call void @openc_p(ptr noundef %6, ptr noundef %7)
  ret void
}