; Function Attrs: nounwind uwtable
define internal fastcc void @opgen_PUSH_PZ(ptr noundef captures(none) %0, ptr noundef %1) unnamed_addr #1 {
  %3 = getelementptr inbounds nuw i8, ptr %0, i64 64
  %4 = load ptr, ptr %3, align 8, !tbaa !62
  %5 = getelementptr inbounds nuw i8, ptr %0, i64 56
  %6 = load ptr, ptr %5, align 8, !tbaa !63
  %7 = ptrtoint ptr %4 to i64
  %8 = ptrtoint ptr %6 to i64
  %9 = sub i64 %7, %8
  %10 = icmp ult i64 %9, 8
  br i1 %10, label %11, label %openc_alloc_space.exit.i

11:                                               ; preds = %2
  %12 = getelementptr inbounds nuw i8, ptr %0, i64 48
  %13 = load ptr, ptr %12, align 8, !tbaa !64
  %14 = ptrtoint ptr %13 to i64
  %15 = sub i64 %7, %14
  %16 = icmp eq ptr %4, %13
  %17 = shl i64 %15, 1
  %18 = select i1 %16, i64 1024, i64 %17
  %19 = tail call ptr @CRYPTO_realloc(ptr noundef %13, i64 noundef %18, ptr noundef nonnull @.str.42, i32 noundef 262) #12
  %20 = tail call i32 @test_ptr(ptr noundef nonnull @.str.42, i32 noundef 263, ptr noundef nonnull @.str.43, ptr noundef %19) #12
  %.not.i.i = icmp eq i32 %20, 0
  br i1 %.not.i.i, label %openc_u64.exit, label %21

21:                                               ; preds = %11
  %22 = sub i64 %8, %14
  store ptr %19, ptr %12, align 8, !tbaa !64
  %23 = getelementptr inbounds nuw i8, ptr %19, i64 %22
  %24 = getelementptr inbounds nuw i8, ptr %19, i64 %18
  store ptr %24, ptr %3, align 8, !tbaa !62
  br label %openc_alloc_space.exit.i

openc_alloc_space.exit.i:                         ; preds = %21, %2
  %25 = phi ptr [ %23, %21 ], [ %6, %2 ]
  %26 = getelementptr inbounds nuw i8, ptr %25, i64 8
  store ptr %26, ptr %5, align 8, !tbaa !63
  %27 = icmp eq ptr %25, null
  br i1 %27, label %openc_u64.exit, label %28

28:                                               ; preds = %openc_alloc_space.exit.i
  store i64 3, ptr %25, align 1
  br label %openc_u64.exit

openc_u64.exit:                                   ; preds = %11, %openc_alloc_space.exit.i, %28
  %29 = load ptr, ptr %3, align 8, !tbaa !62
  %30 = load ptr, ptr %5, align 8, !tbaa !63
  %31 = ptrtoint ptr %29 to i64
  %32 = ptrtoint ptr %30 to i64
  %33 = sub i64 %31, %32
  %34 = icmp ult i64 %33, 8
  br i1 %34, label %35, label %openc_alloc_space.exit.i3

35:                                               ; preds = %openc_u64.exit
  %36 = getelementptr inbounds nuw i8, ptr %0, i64 48
  %37 = load ptr, ptr %36, align 8, !tbaa !64
  %38 = ptrtoint ptr %37 to i64
  %39 = sub i64 %31, %38
  %40 = icmp eq ptr %29, %37
  %41 = shl i64 %39, 1
  %42 = select i1 %40, i64 1024, i64 %41
  %43 = tail call ptr @CRYPTO_realloc(ptr noundef %37, i64 noundef %42, ptr noundef nonnull @.str.42, i32 noundef 262) #12
  %44 = tail call i32 @test_ptr(ptr noundef nonnull @.str.42, i32 noundef 263, ptr noundef nonnull @.str.43, ptr noundef %43) #12
  %.not.i.i4 = icmp eq i32 %44, 0
  br i1 %.not.i.i4, label %openc_p.exit, label %45

45:                                               ; preds = %35
  %46 = sub i64 %32, %38
  store ptr %43, ptr %36, align 8, !tbaa !64
  %47 = getelementptr inbounds nuw i8, ptr %43, i64 %46
  %48 = getelementptr inbounds nuw i8, ptr %43, i64 %42
  store ptr %48, ptr %3, align 8, !tbaa !62
  br label %openc_alloc_space.exit.i3

openc_alloc_space.exit.i3:                        ; preds = %45, %openc_u64.exit
  %49 = phi ptr [ %47, %45 ], [ %30, %openc_u64.exit ]
  %50 = getelementptr inbounds nuw i8, ptr %49, i64 8
  store ptr %50, ptr %5, align 8, !tbaa !63
  %51 = icmp eq ptr %49, null
  br i1 %51, label %openc_p.exit, label %52

52:                                               ; preds = %openc_alloc_space.exit.i3
  store ptr %1, ptr %49, align 1
  br label %openc_p.exit

openc_p.exit:                                     ; preds = %35, %openc_alloc_space.exit.i3, %52
  ret void
}